target datalayout = "e-m:e-p270:32:32-p271:32:32-p272:64:64-i64:64-i128:128-f80:128-n8:16:32:64-S128"
target triple = "x86_64-pc-linux-gnu"

%struct.hwloc_obj = type { i32, ptr, i32, ptr, i64, ptr, i32, i32, ptr, ptr, ptr, i32, ptr, ptr, i32, ptr, ptr, ptr, i32, i32, ptr, i32, ptr, i32, ptr, ptr, ptr, ptr, ptr, %struct.hwloc_infos_s, ptr, i64 }
%struct.hwloc_infos_s = type { ptr, i32, i32 }

; Function Attrs: inlinehint nounwind uwtable
define internal i32 @hwloc_distrib(ptr noundef %0, ptr noundef %1, i32 noundef %2, ptr noundef %3, i32 noundef %4, i32 noundef %5, i64 noundef %6) #2 {
  %8 = alloca i32, align 4
  %9 = alloca ptr, align 8
  %10 = alloca ptr, align 8
  %11 = alloca i32, align 4
  %12 = alloca ptr, align 8
  %13 = alloca i32, align 4
  %14 = alloca i32, align 4
  %15 = alloca i64, align 8
  %16 = alloca i32, align 4
  %17 = alloca i32, align 4
  %18 = alloca i32, align 4
  %19 = alloca i32, align 4
  %20 = alloca ptr, align 8
  %21 = alloca i32, align 4
  %22 = alloca i32, align 4
  %23 = alloca i32, align 4
  %24 = alloca ptr, align 8
  %25 = alloca ptr, align 8
  %26 = alloca i32, align 4
  store ptr %0, ptr %9, align 8, !tbaa !18
  store ptr %1, ptr %10, align 8, !tbaa !26
  store i32 %2, ptr %11, align 4, !tbaa !11
  store ptr %3, ptr %12, align 8, !tbaa !22
  store i32 %4, ptr %13, align 4, !tbaa !11
  store i32 %5, ptr %14, align 4, !tbaa !11
  store i64 %6, ptr %15, align 8, !tbaa !15
  call void @llvm.lifetime.start.p0(i64 4, ptr %16) #11
  call void @llvm.lifetime.start.p0(i64 4, ptr %17) #11
  call void @llvm.lifetime.start.p0(i64 4, ptr %18) #11
  call void @llvm.lifetime.start.p0(i64 4, ptr %19) #11
  call void @llvm.lifetime.start.p0(i64 8, ptr %20) #11
  %27 = load ptr, ptr %12, align 8, !tbaa !22
  store ptr %27, ptr %20, align 8, !tbaa !22
  %28 = load i32, ptr %13, align 4, !tbaa !11
  %29 = icmp ne i32 %28, 0
  br i1 %29, label %30, label %34

30:                                               ; preds = %7
  %31 = load i64, ptr %15, align 8, !tbaa !15
  %32 = and i64 %31, -2
  %33 = icmp ne i64 %32, 0
  br i1 %33, label %34, label %36

34:                                               ; preds = %30, %7
  %35 = call ptr @__errno_location() #15
  store i32 22, ptr %35, align 4, !tbaa !11
  store i32 -1, ptr %8, align 4
  store i32 1, ptr %21, align 4
  br label %190

36:                                               ; preds = %30
  store i32 0, ptr %17, align 4, !tbaa !11
  store i32 0, ptr %16, align 4, !tbaa !11
  br label %37

37:                                               ; preds = %52, %36
  %38 = load i32, ptr %16, align 4, !tbaa !11
  %39 = load i32, ptr %11, align 4, !tbaa !11
  %40 = icmp ult i32 %38, %39
  br i1 %40, label %41, label %55

41:                                               ; preds = %37
  %42 = load ptr, ptr %10, align 8, !tbaa !26
  %43 = load i32, ptr %16, align 4, !tbaa !11
  %44 = zext i32 %43 to i64
  %45 = getelementptr inbounds nuw ptr, ptr %42, i64 %44
  %46 = load ptr, ptr %45, align 8, !tbaa !28
  %47 = getelementptr inbounds nuw %struct.hwloc_obj, ptr %46, i32 0, i32 25
  %48 = load ptr, ptr %47, align 8, !tbaa !46
  %49 = call i32 @hwloc_bitmap_weight(ptr noundef %48) #12
  %50 = load i32, ptr %17, align 4, !tbaa !11
  %51 = add i32 %50, %49
  store i32 %51, ptr %17, align 4, !tbaa !11
  br label %52

52:                                               ; preds = %41
  %53 = load i32, ptr %16, align 4, !tbaa !11
  %54 = add i32 %53, 1
  store i32 %54, ptr %16, align 4, !tbaa !11
  br label %37, !llvm.loop !51

55:                                               ; preds = %37
  store i32 0, ptr %16, align 4, !tbaa !11
  store i32 0, ptr %18, align 4, !tbaa !11
  store i32 0, ptr %19, align 4, !tbaa !11
  br label %56

56:                                               ; preds = %186, %55
  %57 = load i32, ptr %16, align 4, !tbaa !11
  %58 = load i32, ptr %11, align 4, !tbaa !11
  %59 = icmp ult i32 %57, %58
  br i1 %59, label %60, label %189

60:                                               ; preds = %56
  call void @llvm.lifetime.start.p0(i64 4, ptr %22) #11
  call void @llvm.lifetime.start.p0(i64 4, ptr %23) #11
  call void @llvm.lifetime.start.p0(i64 8, ptr %24) #11
  %61 = load ptr, ptr %10, align 8, !tbaa !26
  %62 = load i64, ptr %15, align 8, !tbaa !15
  %63 = and i64 %62, 1
  %64 = icmp ne i64 %63, 0
  br i1 %64, label %65, label %70

65:                                               ; preds = %60
  %66 = load i32, ptr %11, align 4, !tbaa !11
  %67 = sub i32 %66, 1
  %68 = load i32, ptr %16, align 4, !tbaa !11
  %69 = sub i32 %67, %68
  br label %72

70:                                               ; preds = %60
  %71 = load i32, ptr %16, align 4, !tbaa !11
  br label %72

72:                                               ; preds = %70, %65
  %73 = phi i32 [ %69, %65 ], [ %71, %70 ]
  %74 = zext i32 %73 to i64
  %75 = getelementptr inbounds nuw ptr, ptr %61, i64 %74
  %76 = load ptr, ptr %75, align 8, !tbaa !28
  store ptr %76, ptr %24, align 8, !tbaa !28
  call void @llvm.lifetime.start.p0(i64 8, ptr %25) #11
  %77 = load ptr, ptr %24, align 8, !tbaa !28
  %78 = getelementptr inbounds nuw %struct.hwloc_obj, ptr %77, i32 0, i32 25
  %79 = load ptr, ptr %78, align 8, !tbaa !46
  store ptr %79, ptr %25, align 8, !tbaa !24
  br label %80

80:                                               ; preds = %87, %72
  %81 = load ptr, ptr %24, align 8, !tbaa !28
  %82 = getelementptr inbounds nuw %struct.hwloc_obj, ptr %81, i32 0, i32 0
  %83 = load i32, ptr %82, align 8, !tbaa !52
  %84 = call i32 @hwloc_obj_type_is_normal(i32 noundef %83)
  %85 = icmp ne i32 %84, 0
  %86 = xor i1 %85, true
  br i1 %86, label %87, label %91

87:                                               ; preds = %80
  %88 = load ptr, ptr %24, align 8, !tbaa !28
  %89 = getelementptr inbounds nuw %struct.hwloc_obj, ptr %88, i32 0, i32 10
  %90 = load ptr, ptr %89, align 8, !tbaa !53
  store ptr %90, ptr %24, align 8, !tbaa !28
  br label %80, !llvm.loop !54

91:                                               ; preds = %80
  %92 = load ptr, ptr %25, align 8, !tbaa !24
  %93 = call i32 @hwloc_bitmap_weight(ptr noundef %92) #12
  store i32 %93, ptr %23, align 4, !tbaa !11
  %94 = load i32, ptr %23, align 4, !tbaa !11
  %95 = icmp ne i32 %94, 0
  br i1 %95, label %97, label %96

96:                                               ; preds = %91
  store i32 7, ptr %21, align 4
  br label %183

97:                                               ; preds = %91
  %98 = load i32, ptr %19, align 4, !tbaa !11
  %99 = load i32, ptr %23, align 4, !tbaa !11
  %100 = add i32 %98, %99
  %101 = load i32, ptr %13, align 4, !tbaa !11
  %102 = mul i32 %100, %101
  %103 = load i32, ptr %17, align 4, !tbaa !11
  %104 = add i32 %102, %103
  %105 = sub i32 %104, 1
  %106 = load i32, ptr %17, align 4, !tbaa !11
  %107 = udiv i32 %105, %106
  %108 = load i32, ptr %19, align 4, !tbaa !11
  %109 = load i32, ptr %13, align 4, !tbaa !11
  %110 = mul i32 %108, %109
  %111 = load i32, ptr %17, align 4, !tbaa !11
  %112 = add i32 %110, %111
  %113 = sub i32 %112, 1
  %114 = load i32, ptr %17, align 4, !tbaa !11
  %115 = udiv i32 %113, %114
  %116 = sub i32 %107, %115
  store i32 %116, ptr %22, align 4, !tbaa !11
  %117 = load ptr, ptr %24, align 8, !tbaa !28
  %118 = getelementptr inbounds nuw %struct.hwloc_obj, ptr %117, i32 0, i32 14
  %119 = load i32, ptr %118, align 8, !tbaa !55
  %120 = icmp ne i32 %119, 0
  br i1 %120, label %121, label %130

121:                                              ; preds = %97
  %122 = load i32, ptr %22, align 4, !tbaa !11
  %123 = icmp ule i32 %122, 1
  br i1 %123, label %130, label %124

124:                                              ; preds = %121
  %125 = load ptr, ptr %24, align 8, !tbaa !28
  %126 = getelementptr inbounds nuw %struct.hwloc_obj, ptr %125, i32 0, i32 6
  %127 = load i32, ptr %126, align 8, !tbaa !56
  %128 = load i32, ptr %14, align 4, !tbaa !11
  %129 = icmp sge i32 %127, %128
  br i1 %129, label %130, label %159

130:                                              ; preds = %124, %121, %97
  %131 = load i32, ptr %22, align 4, !tbaa !11
  %132 = icmp ne i32 %131, 0
  br i1 %132, label %133, label %149

133:                                              ; preds = %130
  call void @llvm.lifetime.start.p0(i64 4, ptr %26) #11
  store i32 0, ptr %26, align 4, !tbaa !11
  br label %134

134:                                              ; preds = %145, %133
  %135 = load i32, ptr %26, align 4, !tbaa !11
  %136 = load i32, ptr %22, align 4, !tbaa !11
  %137 = icmp ult i32 %135, %136
  br i1 %137, label %138, label %148

138:                                              ; preds = %134
  %139 = load ptr, ptr %25, align 8, !tbaa !24
  %140 = call noalias ptr @hwloc_bitmap_dup(ptr noundef %139)
  %141 = load ptr, ptr %20, align 8, !tbaa !22
  %142 = load i32, ptr %26, align 4, !tbaa !11
  %143 = zext i32 %142 to i64
  %144 = getelementptr inbounds nuw ptr, ptr %141, i64 %143
  store ptr %140, ptr %144, align 8, !tbaa !24
  br label %145

145:                                              ; preds = %138
  %146 = load i32, ptr %26, align 4, !tbaa !11
  %147 = add i32 %146, 1
  store i32 %147, ptr %26, align 4, !tbaa !11
  br label %134, !llvm.loop !57

148:                                              ; preds = %134
  call void @llvm.lifetime.end.p0(i64 4, ptr %26) #11
  br label %158

149:                                              ; preds = %130
  %150 = load ptr, ptr %20, align 8, !tbaa !22
  %151 = getelementptr inbounds ptr, ptr %150, i64 -1
  %152 = load ptr, ptr %151, align 8, !tbaa !24
  %153 = load ptr, ptr %20, align 8, !tbaa !22
  %154 = getelementptr inbounds ptr, ptr %153, i64 -1
  %155 = load ptr, ptr %154, align 8, !tbaa !24
  %156 = load ptr, ptr %25, align 8, !tbaa !24
  %157 = call i32 @hwloc_bitmap_or(ptr noundef %152, ptr noundef %155, ptr noundef %156)
  br label %158

158:                                              ; preds = %149, %148
  br label %172

159:                                              ; preds = %124
  %160 = load ptr, ptr %9, align 8, !tbaa !18
  %161 = load ptr, ptr %24, align 8, !tbaa !28
  %162 = getelementptr inbounds nuw %struct.hwloc_obj, ptr %161, i32 0, i32 15
  %163 = load ptr, ptr %162, align 8, !tbaa !58
  %164 = load ptr, ptr %24, align 8, !tbaa !28
  %165 = getelementptr inbounds nuw %struct.hwloc_obj, ptr %164, i32 0, i32 14
  %166 = load i32, ptr %165, align 8, !tbaa !55
  %167 = load ptr, ptr %20, align 8, !tbaa !22
  %168 = load i32, ptr %22, align 4, !tbaa !11
  %169 = load i32, ptr %14, align 4, !tbaa !11
  %170 = load i64, ptr %15, align 8, !tbaa !15
  %171 = call i32 @hwloc_distrib(ptr noundef %160, ptr noundef %163, i32 noundef %166, ptr noundef %167, i32 noundef %168, i32 noundef %169, i64 noundef %170)
  br label %172

172:                                              ; preds = %159, %158
  %173 = load i32, ptr %22, align 4, !tbaa !11
  %174 = load ptr, ptr %20, align 8, !tbaa !22
  %175 = zext i32 %173 to i64
  %176 = getelementptr inbounds nuw ptr, ptr %174, i64 %175
  store ptr %176, ptr %20, align 8, !tbaa !22
  %177 = load i32, ptr %22, align 4, !tbaa !11
  %178 = load i32, ptr %18, align 4, !tbaa !11
  %179 = add i32 %178, %177
  store i32 %179, ptr %18, align 4, !tbaa !11
  %180 = load i32, ptr %23, align 4, !tbaa !11
  %181 = load i32, ptr %19, align 4, !tbaa !11
  %182 = add i32 %181, %180
  store i32 %182, ptr %19, align 4, !tbaa !11
  store i32 0, ptr %21, align 4
  br label %183

183:                                              ; preds = %172, %96
  call void @llvm.lifetime.end.p0(i64 8, ptr %25) #11
  call void @llvm.lifetime.end.p0(i64 8, ptr %24) #11
  call void @llvm.lifetime.end.p0(i64 4, ptr %23) #11
  call void @llvm.lifetime.end.p0(i64 4, ptr %22) #11
  %184 = load i32, ptr %21, align 4
  switch i32 %184, label %192 [
    i32 0, label %185
    i32 7, label %186
  ]

185:                                              ; preds = %183
  br label %186

186:                                              ; preds = %185, %183
  %187 = load i32, ptr %16, align 4, !tbaa !11
  %188 = add i32 %187, 1
  store i32 %188, ptr %16, align 4, !tbaa !11
  br label %56, !llvm.loop !59

189:                                              ; preds = %56
  store i32 0, ptr %8, align 4
  store i32 1, ptr %21, align 4
  br label %190

190:                                              ; preds = %189, %34
  call void @llvm.lifetime.end.p0(i64 8, ptr %20) #11
  call void @llvm.lifetime.end.p0(i64 4, ptr %19) #11
  call void @llvm.lifetime.end.p0(i64 4, ptr %18) #11
  call void @llvm.lifetime.end.p0(i64 4, ptr %17) #11
  call void @llvm.lifetime.end.p0(i64 4, ptr %16) #11
  %191 = load i32, ptr %8, align 4
  ret i32 %191

192:                                              ; preds = %183
  unreachable
}