; Function Attrs: inlinehint nounwind uwtable
define internal fastcc void @hwloc_distrib(ptr noundef readonly captures(none) %0, i32 noundef %1, ptr noundef captures(none) %2, i32 noundef %3, i32 noundef %4, i64 noundef range(i64 0, 2) %5) unnamed_addr #13 {
  %.not = icmp eq i32 %3, 0
  br i1 %.not, label %7, label %.preheader3

.preheader3:                                      ; preds = %6
  %.not17 = icmp eq i32 %1, 0
  br i1 %.not17, label %.loopexit2, label %.lr.ph.preheader

.lr.ph.preheader:                                 ; preds = %.preheader3
  %wide.trip.count = zext i32 %1 to i64
  br label %.lr.ph

7:                                                ; preds = %6
  %8 = tail call ptr @__errno_location() #28
  store i32 22, ptr %8, align 4, !tbaa !13
  br label %.loopexit2

.lr.ph16:                                         ; preds = %.lr.ph
  %.not76 = icmp eq i64 %5, 0
  %9 = add i32 %15, -1
  br label %16

.lr.ph:                                           ; preds = %.lr.ph.preheader, %.lr.ph
  %indvars.iv = phi i64 [ 0, %.lr.ph.preheader ], [ %indvars.iv.next, %.lr.ph ]
  %.0624 = phi i32 [ 0, %.lr.ph.preheader ], [ %15, %.lr.ph ]
  %10 = getelementptr inbounds nuw ptr, ptr %0, i64 %indvars.iv
  %11 = load ptr, ptr %10, align 8, !tbaa !19
  %12 = getelementptr inbounds nuw i8, ptr %11, i64 184
  %13 = load ptr, ptr %12, align 8, !tbaa !42
  %14 = tail call i32 @hwloc_bitmap_weight(ptr noundef %13) #22
  %15 = add i32 %14, %.0624
  %indvars.iv.next = add nuw nsw i64 %indvars.iv, 1
  %exitcond.not = icmp eq i64 %indvars.iv.next, %wide.trip.count
  br i1 %exitcond.not, label %.lr.ph16, label %.lr.ph, !llvm.loop !48

16:                                               ; preds = %.lr.ph16, %62
  %.115 = phi i32 [ 0, %.lr.ph16 ], [ %63, %62 ]
  %.06314 = phi ptr [ %2, %.lr.ph16 ], [ %.164, %62 ]
  %.06513 = phi i32 [ 0, %.lr.ph16 ], [ %.166, %62 ]
  %17 = xor i32 %.115, -1
  %18 = add i32 %1, %17
  %19 = select i1 %.not76, i32 %.115, i32 %18
  %20 = zext i32 %19 to i64
  %21 = getelementptr inbounds nuw ptr, ptr %0, i64 %20
  %22 = load ptr, ptr %21, align 8, !tbaa !19
  %23 = getelementptr inbounds nuw i8, ptr %22, i64 184
  %24 = load ptr, ptr %23, align 8, !tbaa !42
  %25 = load i32, ptr %22, align 8, !tbaa !49
  %26 = tail call i32 @hwloc_obj_type_is_normal(i32 noundef %25) #21
  %.not776 = icmp eq i32 %26, 0
  br i1 %.not776, label %.lr.ph8, label %._crit_edge

.lr.ph8:                                          ; preds = %16, %.lr.ph8
  %.0607 = phi ptr [ %28, %.lr.ph8 ], [ %22, %16 ]
  %27 = getelementptr inbounds nuw i8, ptr %.0607, i64 72
  %28 = load ptr, ptr %27, align 8, !tbaa !50
  %29 = load i32, ptr %28, align 8, !tbaa !49
  %30 = tail call i32 @hwloc_obj_type_is_normal(i32 noundef %29) #21
  %.not77 = icmp eq i32 %30, 0
  br i1 %.not77, label %.lr.ph8, label %._crit_edge, !llvm.loop !51

._crit_edge:                                      ; preds = %.lr.ph8, %16
  %.060.lcssa = phi ptr [ %22, %16 ], [ %28, %.lr.ph8 ]
  %31 = tail call i32 @hwloc_bitmap_weight(ptr noundef %24) #22
  %.not78 = icmp eq i32 %31, 0
  br i1 %.not78, label %62, label %32

32:                                               ; preds = %._crit_edge
  %33 = add i32 %31, %.06513
  %34 = mul i32 %33, %3
  %35 = add i32 %9, %34
  %36 = udiv i32 %35, %15
  %37 = mul i32 %.06513, %3
  %38 = add i32 %9, %37
  %39 = udiv i32 %38, %15
  %40 = sub i32 %36, %39
  %41 = getelementptr inbounds nuw i8, ptr %.060.lcssa, i64 104
  %42 = load i32, ptr %41, align 8, !tbaa !52
  %43 = icmp eq i32 %42, 0
  %44 = icmp ult i32 %40, 2
  %or.cond = select i1 %43, i1 true, i1 %44
  br i1 %or.cond, label %48, label %45

45:                                               ; preds = %32
  %46 = getelementptr inbounds nuw i8, ptr %.060.lcssa, i64 48
  %47 = load i32, ptr %46, align 8, !tbaa !53
  %.not79 = icmp slt i32 %47, %4
  br i1 %.not79, label %57, label %48

48:                                               ; preds = %45, %32
  %.not80 = icmp eq i32 %36, %39
  br i1 %.not80, label %53, label %.lr.ph11.preheader

.lr.ph11.preheader:                               ; preds = %48
  %49 = zext i32 %40 to i64
  br label %.lr.ph11

.lr.ph11:                                         ; preds = %.lr.ph11.preheader, %.lr.ph11
  %indvars.iv21 = phi i64 [ 0, %.lr.ph11.preheader ], [ %indvars.iv.next22, %.lr.ph11 ]
  %50 = tail call noalias ptr @hwloc_bitmap_dup(ptr noundef %24) #21
  %51 = getelementptr inbounds nuw ptr, ptr %.06314, i64 %indvars.iv21
  store ptr %50, ptr %51, align 8, !tbaa !22
  %indvars.iv.next22 = add nuw nsw i64 %indvars.iv21, 1
  %52 = icmp samesign ult i64 %indvars.iv.next22, %49
  br i1 %52, label %.lr.ph11, label %.loopexit, !llvm.loop !54

53:                                               ; preds = %48
  %54 = getelementptr inbounds i8, ptr %.06314, i64 -8
  %55 = load ptr, ptr %54, align 8, !tbaa !22
  %56 = tail call i32 @hwloc_bitmap_or(ptr noundef %55, ptr noundef %55, ptr noundef %24) #21
  br label %.loopexit

57:                                               ; preds = %45
  %58 = getelementptr inbounds nuw i8, ptr %.060.lcssa, i64 112
  %59 = load ptr, ptr %58, align 8, !tbaa !55
  tail call fastcc void @hwloc_distrib(ptr noundef %59, i32 noundef %42, ptr noundef %.06314, i32 noundef %40, i32 noundef %4, i64 noundef %5)
  br label %.loopexit

.loopexit:                                        ; preds = %.lr.ph11, %53, %57
  %60 = zext i32 %40 to i64
  %61 = getelementptr inbounds nuw ptr, ptr %.06314, i64 %60
  br label %62

62:                                               ; preds = %._crit_edge, %.loopexit
  %.166 = phi i32 [ %33, %.loopexit ], [ %.06513, %._crit_edge ]
  %.164 = phi ptr [ %61, %.loopexit ], [ %.06314, %._crit_edge ]
  %63 = add nuw i32 %.115, 1
  %exitcond24.not = icmp eq i32 %63, %1
  br i1 %exitcond24.not, label %.loopexit2, label %16, !llvm.loop !56

.loopexit2:                                       ; preds = %62, %.preheader3, %7
  ret void
}